target datalayout = "e-m:e-p270:32:32-p271:32:32-p272:64:64-i64:64-i128:128-f80:128-n8:16:32:64-S128"
target triple = "x86_64-pc-linux-gnu"

%struct.Llb_Mgr_t_ = type { ptr, ptr, i32, ptr, ptr, i32, i32, i32, ptr }
%struct.Llb_Var_t_ = type { i32, i32, ptr }
%struct.Vec_Int_t_ = type { i32, i32, ptr }
%struct.Llb_Prt_t_ = type { i32, i32, ptr, ptr }

@.str = private unnamed_addr constant [2 x i8] c"\0A\00", align 1
@.str.1 = private unnamed_addr constant [11 x i8] c"Var %3d : \00", align 1
@.str.2 = private unnamed_addr constant [4 x i8] c"%d \00", align 1
@.str.3 = private unnamed_addr constant [12 x i8] c"Part %3d : \00", align 1

; Function Attrs: inlinehint nounwind uwtable
define internal ptr @Llb_MgrPart(ptr noundef %0, i32 noundef %1) #1 {
  %3 = alloca ptr, align 8
  %4 = alloca i32, align 4
  store ptr %0, ptr %3, align 8, !tbaa !3
  store i32 %1, ptr %4, align 4, !tbaa !50
  %5 = load ptr, ptr %3, align 8, !tbaa !3
  %6 = getelementptr inbounds nuw %struct.Llb_Mgr_t_, ptr %5, i32 0, i32 3
  %7 = load ptr, ptr %6, align 8, !tbaa !26
  %8 = load i32, ptr %4, align 4, !tbaa !50
  %9 = sext i32 %8 to i64
  %10 = getelementptr inbounds ptr, ptr %7, i64 %9
  %11 = load ptr, ptr %10, align 8, !tbaa !24
  ret ptr %11
}

; Function Attrs: inlinehint nounwind uwtable
define internal i32 @Vec_IntEntry(ptr noundef %0, i32 noundef %1) #1 {
  %3 = alloca ptr, align 8
  %4 = alloca i32, align 4
  store ptr %0, ptr %3, align 8, !tbaa !21
  store i32 %1, ptr %4, align 4, !tbaa !50
  %5 = load ptr, ptr %3, align 8, !tbaa !21
  %6 = getelementptr inbounds nuw %struct.Vec_Int_t_, ptr %5, i32 0, i32 2
  %7 = load ptr, ptr %6, align 8, !tbaa !22
  %8 = load i32, ptr %4, align 4, !tbaa !50
  %9 = sext i32 %8 to i64
  %10 = getelementptr inbounds i32, ptr %7, i64 %9
  %11 = load i32, ptr %10, align 4, !tbaa !50
  ret i32 %11
}

; Function Attrs: inlinehint nounwind uwtable
define internal i32 @Vec_IntSize(ptr noundef %0) #1 {
  %2 = alloca ptr, align 8
  store ptr %0, ptr %2, align 8, !tbaa !21
  %3 = load ptr, ptr %2, align 8, !tbaa !21
  %4 = getelementptr inbounds nuw %struct.Vec_Int_t_, ptr %3, i32 0, i32 1
  %5 = load i32, ptr %4, align 4, !tbaa !53
  ret i32 %5
}

; Function Attrs: inlinehint nounwind uwtable
define internal ptr @Llb_MgrVar(ptr noundef %0, i32 noundef %1) #1 {
  %3 = alloca ptr, align 8
  %4 = alloca i32, align 4
  store ptr %0, ptr %3, align 8, !tbaa !3
  store i32 %1, ptr %4, align 4, !tbaa !50
  %5 = load ptr, ptr %3, align 8, !tbaa !3
  %6 = getelementptr inbounds nuw %struct.Llb_Mgr_t_, ptr %5, i32 0, i32 4
  %7 = load ptr, ptr %6, align 8, !tbaa !10
  %8 = load i32, ptr %4, align 4, !tbaa !50
  %9 = sext i32 %8 to i64
  %10 = getelementptr inbounds ptr, ptr %7, i64 %9
  %11 = load ptr, ptr %10, align 8, !tbaa !8
  ret ptr %11
}

; Function Attrs: nounwind uwtable
define void @Llb_Nonlin4Print(ptr noundef %0) #0 {
  %2 = alloca ptr, align 8
  %3 = alloca ptr, align 8
  %4 = alloca ptr, align 8
  %5 = alloca i32, align 4
  %6 = alloca i32, align 4
  store ptr %0, ptr %2, align 8, !tbaa !3
  call void @llvm.lifetime.start.p0(i64 8, ptr %3) #8
  call void @llvm.lifetime.start.p0(i64 8, ptr %4) #8
  call void @llvm.lifetime.start.p0(i64 4, ptr %5) #8
  call void @llvm.lifetime.start.p0(i64 4, ptr %6) #8
  %7 = call i32 (ptr, ...) @printf(ptr noundef @.str)
  store i32 0, ptr %5, align 4, !tbaa !50
  br label %8

8:                                                ; preds = %55, %1
  %9 = load i32, ptr %5, align 4, !tbaa !50
  %10 = load ptr, ptr %2, align 8, !tbaa !3
  %11 = getelementptr inbounds nuw %struct.Llb_Mgr_t_, ptr %10, i32 0, i32 6
  %12 = load i32, ptr %11, align 4, !tbaa !56
  %13 = icmp slt i32 %9, %12
  br i1 %13, label %14, label %18

14:                                               ; preds = %8
  %15 = load ptr, ptr %2, align 8, !tbaa !3
  %16 = load i32, ptr %5, align 4, !tbaa !50
  %17 = call ptr @Llb_MgrVar(ptr noundef %15, i32 noundef %16)
  store ptr %17, ptr %4, align 8, !tbaa !8
  br label %18

18:                                               ; preds = %14, %8
  %19 = phi i1 [ false, %8 ], [ true, %14 ]
  br i1 %19, label %20, label %58

20:                                               ; preds = %18
  %21 = load ptr, ptr %4, align 8, !tbaa !8
  %22 = icmp eq ptr %21, null
  br i1 %22, label %23, label %24

23:                                               ; preds = %20
  br label %54

24:                                               ; preds = %20
  %25 = load i32, ptr %5, align 4, !tbaa !50
  %26 = call i32 (ptr, ...) @printf(ptr noundef @.str.1, i32 noundef %25)
  store i32 0, ptr %6, align 4, !tbaa !50
  br label %27

27:                                               ; preds = %49, %24
  %28 = load i32, ptr %6, align 4, !tbaa !50
  %29 = load ptr, ptr %4, align 8, !tbaa !8
  %30 = getelementptr inbounds nuw %struct.Llb_Var_t_, ptr %29, i32 0, i32 2
  %31 = load ptr, ptr %30, align 8, !tbaa !20
  %32 = call i32 @Vec_IntSize(ptr noundef %31)
  %33 = icmp slt i32 %28, %32
  br i1 %33, label %34, label %42

34:                                               ; preds = %27
  %35 = load ptr, ptr %2, align 8, !tbaa !3
  %36 = load ptr, ptr %4, align 8, !tbaa !8
  %37 = getelementptr inbounds nuw %struct.Llb_Var_t_, ptr %36, i32 0, i32 2
  %38 = load ptr, ptr %37, align 8, !tbaa !20
  %39 = load i32, ptr %6, align 4, !tbaa !50
  %40 = call i32 @Vec_IntEntry(ptr noundef %38, i32 noundef %39)
  %41 = call ptr @Llb_MgrPart(ptr noundef %35, i32 noundef %40)
  store ptr %41, ptr %3, align 8, !tbaa !24
  br label %42

42:                                               ; preds = %34, %27
  %43 = phi i1 [ false, %27 ], [ true, %34 ]
  br i1 %43, label %44, label %52

44:                                               ; preds = %42
  %45 = load ptr, ptr %3, align 8, !tbaa !24
  %46 = getelementptr inbounds nuw %struct.Llb_Prt_t_, ptr %45, i32 0, i32 0
  %47 = load i32, ptr %46, align 8, !tbaa !27
  %48 = call i32 (ptr, ...) @printf(ptr noundef @.str.2, i32 noundef %47)
  br label %49

49:                                               ; preds = %44
  %50 = load i32, ptr %6, align 4, !tbaa !50
  %51 = add nsw i32 %50, 1
  store i32 %51, ptr %6, align 4, !tbaa !50
  br label %27, !llvm.loop !57

52:                                               ; preds = %42
  %53 = call i32 (ptr, ...) @printf(ptr noundef @.str)
  br label %54

54:                                               ; preds = %52, %23
  br label %55

55:                                               ; preds = %54
  %56 = load i32, ptr %5, align 4, !tbaa !50
  %57 = add nsw i32 %56, 1
  store i32 %57, ptr %5, align 4, !tbaa !50
  br label %8, !llvm.loop !58

58:                                               ; preds = %18
  store i32 0, ptr %5, align 4, !tbaa !50
  br label %59

59:                                               ; preds = %106, %58
  %60 = load i32, ptr %5, align 4, !tbaa !50
  %61 = load ptr, ptr %2, align 8, !tbaa !3
  %62 = getelementptr inbounds nuw %struct.Llb_Mgr_t_, ptr %61, i32 0, i32 5
  %63 = load i32, ptr %62, align 8, !tbaa !59
  %64 = icmp slt i32 %60, %63
  br i1 %64, label %65, label %69

65:                                               ; preds = %59
  %66 = load ptr, ptr %2, align 8, !tbaa !3
  %67 = load i32, ptr %5, align 4, !tbaa !50
  %68 = call ptr @Llb_MgrPart(ptr noundef %66, i32 noundef %67)
  store ptr %68, ptr %3, align 8, !tbaa !24
  br label %69

69:                                               ; preds = %65, %59
  %70 = phi i1 [ false, %59 ], [ true, %65 ]
  br i1 %70, label %71, label %109

71:                                               ; preds = %69
  %72 = load ptr, ptr %3, align 8, !tbaa !24
  %73 = icmp eq ptr %72, null
  br i1 %73, label %74, label %75

74:                                               ; preds = %71
  br label %105

75:                                               ; preds = %71
  %76 = load i32, ptr %5, align 4, !tbaa !50
  %77 = call i32 (ptr, ...) @printf(ptr noundef @.str.3, i32 noundef %76)
  store i32 0, ptr %6, align 4, !tbaa !50
  br label %78

78:                                               ; preds = %100, %75
  %79 = load i32, ptr %6, align 4, !tbaa !50
  %80 = load ptr, ptr %3, align 8, !tbaa !24
  %81 = getelementptr inbounds nuw %struct.Llb_Prt_t_, ptr %80, i32 0, i32 3
  %82 = load ptr, ptr %81, align 8, !tbaa !30
  %83 = call i32 @Vec_IntSize(ptr noundef %82)
  %84 = icmp slt i32 %79, %83
  br i1 %84, label %85, label %93

85:                                               ; preds = %78
  %86 = load ptr, ptr %2, align 8, !tbaa !3
  %87 = load ptr, ptr %3, align 8, !tbaa !24
  %88 = getelementptr inbounds nuw %struct.Llb_Prt_t_, ptr %87, i32 0, i32 3
  %89 = load ptr, ptr %88, align 8, !tbaa !30
  %90 = load i32, ptr %6, align 4, !tbaa !50
  %91 = call i32 @Vec_IntEntry(ptr noundef %89, i32 noundef %90)
  %92 = call ptr @Llb_MgrVar(ptr noundef %86, i32 noundef %91)
  store ptr %92, ptr %4, align 8, !tbaa !8
  br label %93

93:                                               ; preds = %85, %78
  %94 = phi i1 [ false, %78 ], [ true, %85 ]
  br i1 %94, label %95, label %103

95:                                               ; preds = %93
  %96 = load ptr, ptr %4, align 8, !tbaa !8
  %97 = getelementptr inbounds nuw %struct.Llb_Var_t_, ptr %96, i32 0, i32 0
  %98 = load i32, ptr %97, align 8, !tbaa !18
  %99 = call i32 (ptr, ...) @printf(ptr noundef @.str.2, i32 noundef %98)
  br label %100

100:                                              ; preds = %95
  %101 = load i32, ptr %6, align 4, !tbaa !50
  %102 = add nsw i32 %101, 1
  store i32 %102, ptr %6, align 4, !tbaa !50
  br label %78, !llvm.loop !60

103:                                              ; preds = %93
  %104 = call i32 (ptr, ...) @printf(ptr noundef @.str)
  br label %105

105:                                              ; preds = %103, %74
  br label %106

106:                                              ; preds = %105
  %107 = load i32, ptr %5, align 4, !tbaa !50
  %108 = add nsw i32 %107, 1
  store i32 %108, ptr %5, align 4, !tbaa !50
  br label %59, !llvm.loop !61

109:                                              ; preds = %69
  call void @llvm.lifetime.end.p0(i64 4, ptr %6) #8
  call void @llvm.lifetime.end.p0(i64 4, ptr %5) #8
  call void @llvm.lifetime.end.p0(i64 8, ptr %4) #8
  call void @llvm.lifetime.end.p0(i64 8, ptr %3) #8
  ret void
}