; Function Attrs: nofree nounwind uwtable
define void @Llb_Nonlin4Print(ptr noundef readonly captures(none) %0) local_unnamed_addr #5 {
  %putchar = tail call i32 @putchar(i32 10)
  %2 = getelementptr inbounds nuw i8, ptr %0, i64 44
  %3 = load i32, ptr %2, align 4, !tbaa !51
  %4 = icmp sgt i32 %3, 0
  br i1 %4, label %.lr.ph49, label %.critedge.preheader

.lr.ph49:                                         ; preds = %1
  %5 = getelementptr i8, ptr %0, i64 32
  %6 = getelementptr i8, ptr %0, i64 24
  br label %12

.critedge.preheader:                              ; preds = %37, %1
  %7 = getelementptr inbounds nuw i8, ptr %0, i64 40
  %8 = load i32, ptr %7, align 8, !tbaa !52
  %9 = icmp sgt i32 %8, 0
  br i1 %9, label %.lr.ph54, label %.critedge4

.lr.ph54:                                         ; preds = %.critedge.preheader
  %10 = getelementptr i8, ptr %0, i64 24
  %11 = getelementptr i8, ptr %0, i64 32
  br label %41

12:                                               ; preds = %.lr.ph49, %37
  %13 = phi i32 [ %3, %.lr.ph49 ], [ %38, %37 ]
  %indvars.iv56 = phi i64 [ 0, %.lr.ph49 ], [ %indvars.iv.next57, %37 ]
  %.val43 = load ptr, ptr %5, align 8, !tbaa !3
  %14 = getelementptr inbounds nuw ptr, ptr %.val43, i64 %indvars.iv56
  %15 = load ptr, ptr %14, align 8, !tbaa !16
  %16 = icmp eq ptr %15, null
  br i1 %16, label %37, label %17

17:                                               ; preds = %12
  %18 = trunc nuw nsw i64 %indvars.iv56 to i32
  %19 = tail call i32 (ptr, ...) @printf(ptr noundef nonnull dereferenceable(1) @.str.1, i32 noundef %18)
  %20 = getelementptr inbounds nuw i8, ptr %15, i64 8
  %21 = load ptr, ptr %20, align 8, !tbaa !18
  %22 = getelementptr i8, ptr %21, i64 4
  %.val3946 = load i32, ptr %22, align 4, !tbaa !45
  %23 = icmp sgt i32 %.val3946, 0
  br i1 %23, label %.lr.ph, label %.critedge2

.lr.ph:                                           ; preds = %17, %.lr.ph
  %indvars.iv = phi i64 [ %indvars.iv.next, %.lr.ph ], [ 0, %17 ]
  %24 = phi ptr [ %33, %.lr.ph ], [ %21, %17 ]
  %25 = getelementptr i8, ptr %24, i64 8
  %.val41 = load ptr, ptr %25, align 8, !tbaa !19
  %26 = getelementptr inbounds nuw i32, ptr %.val41, i64 %indvars.iv
  %27 = load i32, ptr %26, align 4, !tbaa !46
  %.val44 = load ptr, ptr %6, align 8, !tbaa !21
  %28 = sext i32 %27 to i64
  %29 = getelementptr inbounds ptr, ptr %.val44, i64 %28
  %30 = load ptr, ptr %29, align 8, !tbaa !25
  %31 = load i32, ptr %30, align 8, !tbaa !22
  %32 = tail call i32 (ptr, ...) @printf(ptr noundef nonnull dereferenceable(1) @.str.2, i32 noundef %31)
  %indvars.iv.next = add nuw nsw i64 %indvars.iv, 1
  %33 = load ptr, ptr %20, align 8, !tbaa !18
  %34 = getelementptr i8, ptr %33, i64 4
  %.val39 = load i32, ptr %34, align 4, !tbaa !45
  %35 = sext i32 %.val39 to i64
  %36 = icmp slt i64 %indvars.iv.next, %35
  br i1 %36, label %.lr.ph, label %.critedge2, !llvm.loop !53

.critedge2:                                       ; preds = %.lr.ph, %17
  %putchar38 = tail call i32 @putchar(i32 10)
  %.pre = load i32, ptr %2, align 4, !tbaa !51
  br label %37

37:                                               ; preds = %.critedge2, %12
  %38 = phi i32 [ %.pre, %.critedge2 ], [ %13, %12 ]
  %indvars.iv.next57 = add nuw nsw i64 %indvars.iv56, 1
  %39 = sext i32 %38 to i64
  %40 = icmp slt i64 %indvars.iv.next57, %39
  br i1 %40, label %12, label %.critedge.preheader, !llvm.loop !54

41:                                               ; preds = %.lr.ph54, %.critedge
  %42 = phi i32 [ %8, %.lr.ph54 ], [ %66, %.critedge ]
  %indvars.iv62 = phi i64 [ 0, %.lr.ph54 ], [ %indvars.iv.next63, %.critedge ]
  %.val45 = load ptr, ptr %10, align 8, !tbaa !21
  %43 = getelementptr inbounds nuw ptr, ptr %.val45, i64 %indvars.iv62
  %44 = load ptr, ptr %43, align 8, !tbaa !25
  %45 = icmp eq ptr %44, null
  br i1 %45, label %.critedge, label %46

46:                                               ; preds = %41
  %47 = trunc nuw nsw i64 %indvars.iv62 to i32
  %48 = tail call i32 (ptr, ...) @printf(ptr noundef nonnull dereferenceable(1) @.str.3, i32 noundef %47)
  %49 = getelementptr inbounds nuw i8, ptr %44, i64 16
  %50 = load ptr, ptr %49, align 8, !tbaa !27
  %51 = getelementptr i8, ptr %50, i64 4
  %.val50 = load i32, ptr %51, align 4, !tbaa !45
  %52 = icmp sgt i32 %.val50, 0
  br i1 %52, label %.lr.ph52, label %.critedge6

.lr.ph52:                                         ; preds = %46, %.lr.ph52
  %indvars.iv59 = phi i64 [ %indvars.iv.next60, %.lr.ph52 ], [ 0, %46 ]
  %53 = phi ptr [ %62, %.lr.ph52 ], [ %50, %46 ]
  %54 = getelementptr i8, ptr %53, i64 8
  %.val40 = load ptr, ptr %54, align 8, !tbaa !19
  %55 = getelementptr inbounds nuw i32, ptr %.val40, i64 %indvars.iv59
  %56 = load i32, ptr %55, align 4, !tbaa !46
  %.val42 = load ptr, ptr %11, align 8, !tbaa !3
  %57 = sext i32 %56 to i64
  %58 = getelementptr inbounds ptr, ptr %.val42, i64 %57
  %59 = load ptr, ptr %58, align 8, !tbaa !16
  %60 = load i32, ptr %59, align 8, !tbaa !14
  %61 = tail call i32 (ptr, ...) @printf(ptr noundef nonnull dereferenceable(1) @.str.2, i32 noundef %60)
  %indvars.iv.next60 = add nuw nsw i64 %indvars.iv59, 1
  %62 = load ptr, ptr %49, align 8, !tbaa !27
  %63 = getelementptr i8, ptr %62, i64 4
  %.val = load i32, ptr %63, align 4, !tbaa !45
  %64 = sext i32 %.val to i64
  %65 = icmp slt i64 %indvars.iv.next60, %64
  br i1 %65, label %.lr.ph52, label %.critedge6, !llvm.loop !55

.critedge6:                                       ; preds = %.lr.ph52, %46
  %putchar37 = tail call i32 @putchar(i32 10)
  %.pre65 = load i32, ptr %7, align 8, !tbaa !52
  br label %.critedge

.critedge:                                        ; preds = %.critedge6, %41
  %66 = phi i32 [ %.pre65, %.critedge6 ], [ %42, %41 ]
  %indvars.iv.next63 = add nuw nsw i64 %indvars.iv62, 1
  %67 = sext i32 %66 to i64
  %68 = icmp slt i64 %indvars.iv.next63, %67
  br i1 %68, label %41, label %.critedge4, !llvm.loop !56

.critedge4:                                       ; preds = %.critedge, %.critedge.preheader
  ret void
}